target datalayout = "e-m:e-p270:32:32-p271:32:32-p272:64:64-i64:64-i128:128-f80:128-n8:16:32:64-S128"
target triple = "x86_64-pc-linux-gnu"

%"class.rocksdb::Slice" = type { ptr, i64 }
%"class.std::__cxx11::basic_string" = type { %"struct.std::__cxx11::basic_string<char>::_Alloc_hider", i64, %union.anon }
%"struct.std::__cxx11::basic_string<char>::_Alloc_hider" = type { ptr }
%union.anon = type { i64, [8 x i8] }

; Function Attrs: mustprogress nounwind uwtable
define available_externally noundef i64 @_ZNKSt7__cxx1112basic_stringIcSt11char_traitsIcESaIcEE4sizeEv(ptr noundef nonnull align 8 dereferenceable(32) %0) #2 align 2 {
  %2 = alloca ptr, align 8
  store ptr %0, ptr %2, align 8, !tbaa !39
  %3 = load ptr, ptr %2, align 8
  %4 = getelementptr inbounds nuw %"class.std::__cxx11::basic_string", ptr %3, i32 0, i32 1
  %5 = load i64, ptr %4, align 8, !tbaa !103
  ret i64 %5
}

; Function Attrs: mustprogress uwtable
define available_externally noundef nonnull align 8 dereferenceable(32) ptr @_ZNSt7__cxx1112basic_stringIcSt11char_traitsIcESaIcEE6assignEPKcm(ptr noundef nonnull align 8 dereferenceable(32) %0, ptr noundef %1, i64 noundef %2) #0 align 2 {
  %4 = alloca ptr, align 8
  %5 = alloca ptr, align 8
  %6 = alloca i64, align 8
  store ptr %0, ptr %4, align 8, !tbaa !39
  store ptr %1, ptr %5, align 8, !tbaa !24
  store i64 %2, ptr %6, align 8, !tbaa !26
  %7 = load ptr, ptr %4, align 8
  %8 = call noundef i64 @_ZNKSt7__cxx1112basic_stringIcSt11char_traitsIcESaIcEE4sizeEv(ptr noundef nonnull align 8 dereferenceable(32) %7) #19
  %9 = load ptr, ptr %5, align 8, !tbaa !24
  %10 = load i64, ptr %6, align 8, !tbaa !26
  %11 = call noundef nonnull align 8 dereferenceable(32) ptr @_ZNSt7__cxx1112basic_stringIcSt11char_traitsIcESaIcEE10_M_replaceEmmPKcm(ptr noundef nonnull align 8 dereferenceable(32) %7, i64 noundef 0, i64 noundef %8, ptr noundef %9, i64 noundef %10)
  ret ptr %11
}

; Function Attrs: mustprogress nounwind uwtable
define linkonce_odr noundef i64 @_ZNK7rocksdb5Slice4sizeEv(ptr noundef nonnull align 8 dereferenceable(16) %0) #2 comdat align 2 {
  %2 = alloca ptr, align 8
  store ptr %0, ptr %2, align 8, !tbaa !18
  %3 = load ptr, ptr %2, align 8
  %4 = getelementptr inbounds nuw %"class.rocksdb::Slice", ptr %3, i32 0, i32 1
  %5 = load i64, ptr %4, align 8, !tbaa !32
  ret i64 %5
}

; Function Attrs: mustprogress nounwind uwtable
define linkonce_odr noundef ptr @_ZNK7rocksdb5Slice4dataEv(ptr noundef nonnull align 8 dereferenceable(16) %0) #2 comdat align 2 {
  %2 = alloca ptr, align 8
  store ptr %0, ptr %2, align 8, !tbaa !18
  %3 = load ptr, ptr %2, align 8
  %4 = getelementptr inbounds nuw %"class.rocksdb::Slice", ptr %3, i32 0, i32 0
  %5 = load ptr, ptr %4, align 8, !tbaa !30
  ret ptr %5
}

; Function Attrs: inlinehint mustprogress nounwind uwtable
define linkonce_odr noundef i32 @_ZNK7rocksdb5Slice7compareERKS0_(ptr noundef nonnull align 8 dereferenceable(16) %0, ptr noundef nonnull align 8 dereferenceable(16) %1) #4 comdat align 2 {
  %3 = alloca ptr, align 8
  %4 = alloca ptr, align 8
  %5 = alloca i64, align 8
  %6 = alloca i32, align 4
  store ptr %0, ptr %3, align 8, !tbaa !18
  store ptr %1, ptr %4, align 8, !tbaa !18
  %7 = load ptr, ptr %3, align 8
  call void @llvm.lifetime.start.p0(i64 8, ptr %5) #19
  %8 = getelementptr inbounds nuw %"class.rocksdb::Slice", ptr %7, i32 0, i32 1
  %9 = load i64, ptr %8, align 8, !tbaa !32
  %10 = load ptr, ptr %4, align 8, !tbaa !18
  %11 = getelementptr inbounds nuw %"class.rocksdb::Slice", ptr %10, i32 0, i32 1
  %12 = load i64, ptr %11, align 8, !tbaa !32
  %13 = icmp ult i64 %9, %12
  br i1 %13, label %14, label %17

14:                                               ; preds = %2
  %15 = getelementptr inbounds nuw %"class.rocksdb::Slice", ptr %7, i32 0, i32 1
  %16 = load i64, ptr %15, align 8, !tbaa !32
  br label %21

17:                                               ; preds = %2
  %18 = load ptr, ptr %4, align 8, !tbaa !18
  %19 = getelementptr inbounds nuw %"class.rocksdb::Slice", ptr %18, i32 0, i32 1
  %20 = load i64, ptr %19, align 8, !tbaa !32
  br label %21

21:                                               ; preds = %17, %14
  %22 = phi i64 [ %16, %14 ], [ %20, %17 ]
  store i64 %22, ptr %5, align 8, !tbaa !26
  call void @llvm.lifetime.start.p0(i64 4, ptr %6) #19
  %23 = getelementptr inbounds nuw %"class.rocksdb::Slice", ptr %7, i32 0, i32 0
  %24 = load ptr, ptr %23, align 8, !tbaa !30
  %25 = load ptr, ptr %4, align 8, !tbaa !18
  %26 = getelementptr inbounds nuw %"class.rocksdb::Slice", ptr %25, i32 0, i32 0
  %27 = load ptr, ptr %26, align 8, !tbaa !30
  %28 = load i64, ptr %5, align 8, !tbaa !26
  %29 = call i32 @memcmp(ptr noundef %24, ptr noundef %27, i64 noundef %28) #20
  store i32 %29, ptr %6, align 4, !tbaa !37
  %30 = load i32, ptr %6, align 4, !tbaa !37
  %31 = icmp eq i32 %30, 0
  br i1 %31, label %32, label %50

32:                                               ; preds = %21
  %33 = getelementptr inbounds nuw %"class.rocksdb::Slice", ptr %7, i32 0, i32 1
  %34 = load i64, ptr %33, align 8, !tbaa !32
  %35 = load ptr, ptr %4, align 8, !tbaa !18
  %36 = getelementptr inbounds nuw %"class.rocksdb::Slice", ptr %35, i32 0, i32 1
  %37 = load i64, ptr %36, align 8, !tbaa !32
  %38 = icmp ult i64 %34, %37
  br i1 %38, label %39, label %40

39:                                               ; preds = %32
  store i32 -1, ptr %6, align 4, !tbaa !37
  br label %49

40:                                               ; preds = %32
  %41 = getelementptr inbounds nuw %"class.rocksdb::Slice", ptr %7, i32 0, i32 1
  %42 = load i64, ptr %41, align 8, !tbaa !32
  %43 = load ptr, ptr %4, align 8, !tbaa !18
  %44 = getelementptr inbounds nuw %"class.rocksdb::Slice", ptr %43, i32 0, i32 1
  %45 = load i64, ptr %44, align 8, !tbaa !32
  %46 = icmp ugt i64 %42, %45
  br i1 %46, label %47, label %48

47:                                               ; preds = %40
  store i32 1, ptr %6, align 4, !tbaa !37
  br label %48

48:                                               ; preds = %47, %40
  br label %49

49:                                               ; preds = %48, %39
  br label %50

50:                                               ; preds = %49, %21
  %51 = load i32, ptr %6, align 4, !tbaa !37
  call void @llvm.lifetime.end.p0(i64 4, ptr %6) #19
  call void @llvm.lifetime.end.p0(i64 8, ptr %5) #19
  ret i32 %51
}

; Function Attrs: mustprogress uwtable
define noundef zeroext i1 @_ZNK7rocksdb11MaxOperator12PartialMergeERKNS_5SliceES3_S3_PNSt7__cxx1112basic_stringIcSt11char_traitsIcESaIcEEEPNS_6LoggerE(ptr noundef nonnull align 8 dereferenceable(32) %0, ptr noundef nonnull align 8 dereferenceable(16) %1, ptr noundef nonnull align 8 dereferenceable(16) %2, ptr noundef nonnull align 8 dereferenceable(16) %3, ptr noundef %4, ptr noundef %5) unnamed_addr #0 align 2 {
  %7 = alloca ptr, align 8
  %8 = alloca ptr, align 8
  %9 = alloca ptr, align 8
  %10 = alloca ptr, align 8
  %11 = alloca ptr, align 8
  %12 = alloca ptr, align 8
  store ptr %0, ptr %7, align 8, !tbaa !4
  store ptr %1, ptr %8, align 8, !tbaa !18
  store ptr %2, ptr %9, align 8, !tbaa !18
  store ptr %3, ptr %10, align 8, !tbaa !18
  store ptr %4, ptr %11, align 8, !tbaa !39
  store ptr %5, ptr %12, align 8, !tbaa !40
  %13 = load ptr, ptr %9, align 8, !tbaa !18
  %14 = load ptr, ptr %10, align 8, !tbaa !18
  %15 = call noundef i32 @_ZNK7rocksdb5Slice7compareERKS0_(ptr noundef nonnull align 8 dereferenceable(16) %13, ptr noundef nonnull align 8 dereferenceable(16) %14)
  %16 = icmp sge i32 %15, 0
  br i1 %16, label %17, label %24

17:                                               ; preds = %6
  %18 = load ptr, ptr %11, align 8, !tbaa !39
  %19 = load ptr, ptr %9, align 8, !tbaa !18
  %20 = call noundef ptr @_ZNK7rocksdb5Slice4dataEv(ptr noundef nonnull align 8 dereferenceable(16) %19)
  %21 = load ptr, ptr %9, align 8, !tbaa !18
  %22 = call noundef i64 @_ZNK7rocksdb5Slice4sizeEv(ptr noundef nonnull align 8 dereferenceable(16) %21)
  %23 = call noundef nonnull align 8 dereferenceable(32) ptr @_ZNSt7__cxx1112basic_stringIcSt11char_traitsIcESaIcEE6assignEPKcm(ptr noundef nonnull align 8 dereferenceable(32) %18, ptr noundef %20, i64 noundef %22)
  br label %31

24:                                               ; preds = %6
  %25 = load ptr, ptr %11, align 8, !tbaa !39
  %26 = load ptr, ptr %10, align 8, !tbaa !18
  %27 = call noundef ptr @_ZNK7rocksdb5Slice4dataEv(ptr noundef nonnull align 8 dereferenceable(16) %26)
  %28 = load ptr, ptr %10, align 8, !tbaa !18
  %29 = call noundef i64 @_ZNK7rocksdb5Slice4sizeEv(ptr noundef nonnull align 8 dereferenceable(16) %28)
  %30 = call noundef nonnull align 8 dereferenceable(32) ptr @_ZNSt7__cxx1112basic_stringIcSt11char_traitsIcESaIcEE6assignEPKcm(ptr noundef nonnull align 8 dereferenceable(32) %25, ptr noundef %27, i64 noundef %29)
  br label %31

31:                                               ; preds = %24, %17
  ret i1 true
}