; Function Attrs: mustprogress uwtable
define noundef zeroext i1 @_ZNK7rocksdb11MaxOperator12PartialMergeERKNS_5SliceES3_S3_PNSt7__cxx1112basic_stringIcSt11char_traitsIcESaIcEEEPNS_6LoggerE(ptr nonnull readnone align 8 captures(none) %0, ptr nonnull readnone align 8 captures(none) %1, ptr noundef nonnull readonly align 8 captures(none) dereferenceable(16) %2, ptr noundef nonnull readonly align 8 captures(none) dereferenceable(16) %3, ptr noundef %4, ptr readnone captures(none) %5) unnamed_addr #3 align 2 {
  %7 = getelementptr inbounds nuw i8, ptr %2, i64 8
  %8 = load i64, ptr %7, align 8, !tbaa !20
  %9 = getelementptr inbounds nuw i8, ptr %3, i64 8
  %10 = load i64, ptr %9, align 8, !tbaa !20
  %..i = tail call i64 @llvm.umin.i64(i64 %8, i64 %10)
  %11 = load ptr, ptr %2, align 8, !tbaa !16
  %12 = load ptr, ptr %3, align 8, !tbaa !16
  %13 = tail call i32 @memcmp(ptr noundef %11, ptr noundef %12, i64 noundef %..i) #15
  %.not.i = icmp eq i32 %13, 0
  %14 = icmp uge i64 %8, %10
  %15 = icmp sgt i32 %13, -1
  %16 = select i1 %.not.i, i1 %14, i1 %15
  %17 = getelementptr inbounds nuw i8, ptr %4, i64 8
  %18 = load i64, ptr %17, align 8, !tbaa !26
  br i1 %16, label %19, label %21

19:                                               ; preds = %6
  %20 = tail call noundef nonnull align 8 dereferenceable(32) ptr @_ZNSt7__cxx1112basic_stringIcSt11char_traitsIcESaIcEE10_M_replaceEmmPKcm(ptr noundef nonnull align 8 dereferenceable(32) %4, i64 noundef 0, i64 noundef %18, ptr noundef %11, i64 noundef %8)
  br label %23

21:                                               ; preds = %6
  %22 = tail call noundef nonnull align 8 dereferenceable(32) ptr @_ZNSt7__cxx1112basic_stringIcSt11char_traitsIcESaIcEE10_M_replaceEmmPKcm(ptr noundef nonnull align 8 dereferenceable(32) %4, i64 noundef 0, i64 noundef %18, ptr noundef %12, i64 noundef %10)
  br label %23

23:                                               ; preds = %21, %19
  ret i1 true
}